   1              		.syntax unified
   2              		.cpu cortex-m4
   3              		.fpu softvfp
   4              		.eabi_attribute 20, 1
   5              		.eabi_attribute 21, 1
   6              		.eabi_attribute 23, 3
   7              		.eabi_attribute 24, 1
   8              		.eabi_attribute 25, 1
   9              		.eabi_attribute 26, 1
  10              		.eabi_attribute 30, 1
  11              		.eabi_attribute 34, 1
  12              		.eabi_attribute 18, 4
  13              		.thumb
  14              		.syntax unified
  15              		.file	"GPIO_Program.c"
  16              		.text
  17              	.Ltext0:
  18              		.cfi_sections	.debug_frame
  19              		.section	.text.GPIO_enuInit,"ax",%progbits
  20              		.align	2
  21              		.global	GPIO_enuInit
  22              		.thumb
  23              		.thumb_func
  25              	GPIO_enuInit:
  26              	.LFB0:
  27              		.file 1 "../src/OSMAN/GPIO_Program.c"
   1:../src/OSMAN/GPIO_Program.c **** 
   2:../src/OSMAN/GPIO_Program.c **** #include"../include/STD_TYPES.h"
   3:../src/OSMAN/GPIO_Program.c **** #include"../include/GPIO_Interface.h"
   4:../src/OSMAN/GPIO_Program.c **** 
   5:../src/OSMAN/GPIO_Program.c **** 
   6:../src/OSMAN/GPIO_Program.c **** 
   7:../src/OSMAN/GPIO_Program.c **** 
   8:../src/OSMAN/GPIO_Program.c **** 
   9:../src/OSMAN/GPIO_Program.c **** 
  10:../src/OSMAN/GPIO_Program.c **** 
  11:../src/OSMAN/GPIO_Program.c **** 
  12:../src/OSMAN/GPIO_Program.c **** 
  13:../src/OSMAN/GPIO_Program.c **** /**
  14:../src/OSMAN/GPIO_Program.c ****  *@ Gpio_enuInit
  15:../src/OSMAN/GPIO_Program.c ****  *@ breif  :  Initialize the pins of the GPIO peripheral 
  16:../src/OSMAN/GPIO_Program.c ****  *@ param  :   Add_strPintConfg (GPIO_strPinConfg_t) : struct
  17:../src/OSMAN/GPIO_Program.c ****  *@
  18:../src/OSMAN/GPIO_Program.c ****  *@	       Add_strPintConfg -> GPIOMode : GPIO_MODE_INPUT_FLOATING 		           	   
  19:../src/OSMAN/GPIO_Program.c ****  *@                                       GPIO_MODE_INPUT_PU				              
  20:../src/OSMAN/GPIO_Program.c ****  *@                                       GPIO_MODE_INPUT_PD                                     
  21:../src/OSMAN/GPIO_Program.c ****  *@                                       GPIO_MODE_OUTPUT_PP				            
  22:../src/OSMAN/GPIO_Program.c ****  *@                                       GPIO_MODE_OUTPUT_PP_PU        	            
  23:../src/OSMAN/GPIO_Program.c ****  *@                                       GPIO_MODE_OUTPUT_PP_PD      	                            
  24:../src/OSMAN/GPIO_Program.c ****  *@                                       GPIO_MODE_OUTPUT_OPENDRAIN		            
  25:../src/OSMAN/GPIO_Program.c ****  *@                                       GPIO_MODE_OUTPUT_OPENDRAIN_PU               
  26:../src/OSMAN/GPIO_Program.c ****  *@                                       GPIO_MODE_OUTPUT_OPENDRAIN_PD                            
  27:../src/OSMAN/GPIO_Program.c ****  *@                                       GPIO_MODE_AF_PP					            
  28:../src/OSMAN/GPIO_Program.c ****  *@                                       GPIO_MODE_AF_PP_PU            	            
  29:../src/OSMAN/GPIO_Program.c ****  *@                                       GPIO_MODE_AF_PP_PD          	            
  30:../src/OSMAN/GPIO_Program.c ****  *@                                       GPIO_MODE_AF_OPENDRAIN			  
  31:../src/OSMAN/GPIO_Program.c ****  *@                                       GPIO_MODE_AF_OPENDRAIN_PU       
  32:../src/OSMAN/GPIO_Program.c ****  *@                                       GPIO_MODE_AF_OPENDRAIN_PD       
  33:../src/OSMAN/GPIO_Program.c ****  *@                                       GPIO_MODE_ANALOG	
  34:../src/OSMAN/GPIO_Program.c ****  *@ 
  35:../src/OSMAN/GPIO_Program.c ****  *@       Add_strPintConfg -> GPIOPort:   GPIOA  
  36:../src/OSMAN/GPIO_Program.c ****  *@										  GPIOB
  37:../src/OSMAN/GPIO_Program.c ****  *@										  GPIOC
  38:../src/OSMAN/GPIO_Program.c ****  *@										  GPIOD
  39:../src/OSMAN/GPIO_Program.c ****  *@										  GPIOE
  40:../src/OSMAN/GPIO_Program.c ****  *@										  GPIOH
  41:../src/OSMAN/GPIO_Program.c ****  *@
  42:../src/OSMAN/GPIO_Program.c ****  *@      Add_strPintConfg -> GPIOSpeed :  GPIO_OUTPUT_SPEED_LOW                      
  43:../src/OSMAN/GPIO_Program.c ****  *@                                      GPIO_OUTPUT_SPEED_MEDIUM                      
  44:../src/OSMAN/GPIO_Program.c ****  *@                                      GPIO_OUTPUT_SPEED_HIGH                        
  45:../src/OSMAN/GPIO_Program.c ****  *@                                      GPIO_OUTPUT_SPEED_VERYHIGH                    
  46:../src/OSMAN/GPIO_Program.c ****  *@                                                                                    
  47:../src/OSMAN/GPIO_Program.c ****  *@     Add_strPintConfg -> GPIOPin   :   GPIO_PIN0 : GPIO_PIN15                               
  48:../src/OSMAN/GPIO_Program.c ****  *@                                                                                             
  49:../src/OSMAN/GPIO_Program.c ****  *@ return  :  error status  
  50:../src/OSMAN/GPIO_Program.c ****  */
  51:../src/OSMAN/GPIO_Program.c **** GPIO_enuErrorStatus_t GPIO_enuInit(GPIO_strPinConfg_t * Add_strPintConfg)
  52:../src/OSMAN/GPIO_Program.c **** {
  28              		.loc 1 52 0
  29              		.cfi_startproc
  30              		@ args = 0, pretend = 0, frame = 0
  31              		@ frame_needed = 0, uses_anonymous_args = 0
  32              		@ link register save eliminated.
  33              	.LVL0:
  53:../src/OSMAN/GPIO_Program.c **** 	
  54:../src/OSMAN/GPIO_Program.c **** 	GPIO_enuErrorStatus_t  Loc_enuRetError = GPIO_enuOK ;
  55:../src/OSMAN/GPIO_Program.c **** 	/* casting port variable to GPIOx_t data type*/
  56:../src/OSMAN/GPIO_Program.c **** 	//Add_strPintConfg -> GPIOPort = (GPIOx_t)(Add_strPintConfg -> GPIOPort);
  57:../src/OSMAN/GPIO_Program.c **** 	
  58:../src/OSMAN/GPIO_Program.c **** 	/**
  59:../src/OSMAN/GPIO_Program.c **** 	*@ VALIDATE input parameters
  60:../src/OSMAN/GPIO_Program.c **** 	*/
  61:../src/OSMAN/GPIO_Program.c **** 	if(Add_strPintConfg == NULL)
  62:../src/OSMAN/GPIO_Program.c **** 	{
  63:../src/OSMAN/GPIO_Program.c **** 		Loc_enuRetError = GPIO_enuNOK ;
  64:../src/OSMAN/GPIO_Program.c **** 	}
  65:../src/OSMAN/GPIO_Program.c **** 	else if((Add_strPintConfg->GPIOPort!=GPIOA)||(Add_strPintConfg->GPIOPort!=GPIOB)||(Add_strPintConf
  66:../src/OSMAN/GPIO_Program.c **** 	{
  67:../src/OSMAN/GPIO_Program.c **** 		Loc_enuRetError = GPIO_enuNOK ;
  68:../src/OSMAN/GPIO_Program.c **** 	}
  69:../src/OSMAN/GPIO_Program.c **** 	else if((Add_strPintConfg -> GPIOPin > GPIO_PIN15))
  70:../src/OSMAN/GPIO_Program.c **** 	{
  71:../src/OSMAN/GPIO_Program.c **** 		Loc_enuRetError = GPIO_enuNOK ;
  72:../src/OSMAN/GPIO_Program.c **** 	}
  73:../src/OSMAN/GPIO_Program.c **** 	else if(((Add_strPintConfg -> GPIOSpeed) > GPIO_OUTPUT_SPEED_VERYHIGH))
  74:../src/OSMAN/GPIO_Program.c **** 	{
  75:../src/OSMAN/GPIO_Program.c **** 		Loc_enuRetError = GPIO_enuNOK ;
  76:../src/OSMAN/GPIO_Program.c **** 	}
  77:../src/OSMAN/GPIO_Program.c **** 	else{
  78:../src/OSMAN/GPIO_Program.c **** 			u32 Loc_u32TempReg = 0;
  79:../src/OSMAN/GPIO_Program.c **** 			
  80:../src/OSMAN/GPIO_Program.c **** 			
  81:../src/OSMAN/GPIO_Program.c **** 			
  82:../src/OSMAN/GPIO_Program.c **** 			
  83:../src/OSMAN/GPIO_Program.c **** 			/* get the dirction mode  */
  84:../src/OSMAN/GPIO_Program.c **** 			Loc_u32TempReg = ((Add_strPintConfg->GPIOMode & GET_MODE_MASK)>>3);
  85:../src/OSMAN/GPIO_Program.c **** 			/* set mode register */
  86:../src/OSMAN/GPIO_Program.c **** 			Add_strPintConfg -> GPIOPort->MODEREG |= (Loc_u32TempReg<<((Add_strPintConfg->GPIOPin)*2));
  87:../src/OSMAN/GPIO_Program.c **** 			
  88:../src/OSMAN/GPIO_Program.c **** 			/*set out mode in case of OUTPUT_MODE or AF_MODE*/
  89:../src/OSMAN/GPIO_Program.c **** 			if((Loc_u32TempReg == OUTPUT_MODE)||(Loc_u32TempReg == AF_MODE))
  90:../src/OSMAN/GPIO_Program.c **** 			{
  91:../src/OSMAN/GPIO_Program.c **** 				/* get the output type mode  */
  92:../src/OSMAN/GPIO_Program.c **** 				Loc_u32TempReg = ((Add_strPintConfg->GPIOMode & GET_TYPE_MASK)>>2);
  93:../src/OSMAN/GPIO_Program.c **** 				/* set the output type register  */
  94:../src/OSMAN/GPIO_Program.c **** 				Add_strPintConfg -> GPIOPort->OTYPER |= (Loc_u32TempReg<<((Add_strPintConfg->GPIOPin)));
  95:../src/OSMAN/GPIO_Program.c **** 			}/*if*/
  96:../src/OSMAN/GPIO_Program.c **** 			
  97:../src/OSMAN/GPIO_Program.c **** 			/* get the pull up/pull down mode  */
  98:../src/OSMAN/GPIO_Program.c **** 			Loc_u32TempReg = ((Add_strPintConfg->GPIOMode & GET_PUPDR_MASK));
  99:../src/OSMAN/GPIO_Program.c **** 			/* SET PUP/PD Rgister  */
 100:../src/OSMAN/GPIO_Program.c **** 			Add_strPintConfg -> GPIOPort->PUPDR |= (Loc_u32TempReg<<((Add_strPintConfg->GPIOPin)*2));
 101:../src/OSMAN/GPIO_Program.c **** 			
 102:../src/OSMAN/GPIO_Program.c **** 			/*set output speed  in case of OUTPUT_MODE or AF_MODE*/
 103:../src/OSMAN/GPIO_Program.c **** 			if((Loc_u32TempReg == OUTPUT_MODE)||(Loc_u32TempReg == AF_MODE))
 104:../src/OSMAN/GPIO_Program.c **** 			{
 105:../src/OSMAN/GPIO_Program.c **** 				/* SET Speed Register  */
 106:../src/OSMAN/GPIO_Program.c **** 				Add_strPintConfg -> GPIOPort->OSPEEDR = ((Add_strPintConfg->GPIOSpeed)<<((Add_strPintConfg->GPI
 107:../src/OSMAN/GPIO_Program.c **** 			}/*if*/
 108:../src/OSMAN/GPIO_Program.c **** 		
 109:../src/OSMAN/GPIO_Program.c **** 	}/*else*/
 110:../src/OSMAN/GPIO_Program.c **** 	
 111:../src/OSMAN/GPIO_Program.c **** 	return Loc_enuRetError ;
 112:../src/OSMAN/GPIO_Program.c **** }/*GPIO_enuInit*/
  34              		.loc 1 112 0
  35 0000 0120     		movs	r0, #1
  36              	.LVL1:
  37 0002 7047     		bx	lr
  38              		.cfi_endproc
  39              	.LFE0:
  41              		.section	.text.GPIO_enuSetPinValue,"ax",%progbits
  42              		.align	2
  43              		.global	GPIO_enuSetPinValue
  44              		.thumb
  45              		.thumb_func
  47              	GPIO_enuSetPinValue:
  48              	.LFB1:
 113:../src/OSMAN/GPIO_Program.c **** 
 114:../src/OSMAN/GPIO_Program.c **** 
 115:../src/OSMAN/GPIO_Program.c **** 
 116:../src/OSMAN/GPIO_Program.c **** /**
 117:../src/OSMAN/GPIO_Program.c ****  *@ GPIO_enuSetPinVal
 118:../src/OSMAN/GPIO_Program.c ****  *@ breif  :  Set Pin to HIGH or to LOW 
 119:../src/OSMAN/GPIO_Program.c ****  *@ param  :   
 120:../src/OSMAN/GPIO_Program.c ****  *@
 121:../src/OSMAN/GPIO_Program.c ****  *@       Add_u8PORT : GPIOA  
 122:../src/OSMAN/GPIO_Program.c ****  *@					   GPIOB
 123:../src/OSMAN/GPIO_Program.c ****  *@					   GPIOC
 124:../src/OSMAN/GPIO_Program.c ****  *@					   GPIOD
 125:../src/OSMAN/GPIO_Program.c ****  *@					   GPIOE
 126:../src/OSMAN/GPIO_Program.c ****  *@					   GPIOH
 127:../src/OSMAN/GPIO_Program.c ****  *@
 128:../src/OSMAN/GPIO_Program.c ****  *@                                                                                    
 129:../src/OSMAN/GPIO_Program.c ****  *@      Copy_u8PIN   :   GPIO_PIN0 : GPIO_PIN15 
 130:../src/OSMAN/GPIO_Program.c ****  *@ 
 131:../src/OSMAN/GPIO_Program.c ****  *@		 Copy_u8Val	  :  GPIO_HIGH
 132:../src/OSMAN/GPIO_Program.c ****  *@						 GPIO_LOW
 133:../src/OSMAN/GPIO_Program.c ****  *@                                                                                             
 134:../src/OSMAN/GPIO_Program.c ****  *@ return  :  error status  
 135:../src/OSMAN/GPIO_Program.c ****  */
 136:../src/OSMAN/GPIO_Program.c **** GPIO_enuErrorStatus_t GPIO_enuSetPinValue(GPIOx_t * Add_u8PORT , u8 Copy_u8PIN , u8 Copy_u8Val )
 137:../src/OSMAN/GPIO_Program.c **** {
  49              		.loc 1 137 0
  50              		.cfi_startproc
  51              		@ args = 0, pretend = 0, frame = 0
  52              		@ frame_needed = 0, uses_anonymous_args = 0
  53              		@ link register save eliminated.
  54              	.LVL2:
 138:../src/OSMAN/GPIO_Program.c **** 	GPIO_enuErrorStatus_t  Loc_enuRetError = GPIO_enuOK ;
 139:../src/OSMAN/GPIO_Program.c **** 	/* casting port variable to GPIOx_t data type*/
 140:../src/OSMAN/GPIO_Program.c **** 	//Add_u8PORT = (GPIOx_t)(Add_u8PORT)
 141:../src/OSMAN/GPIO_Program.c **** 	
 142:../src/OSMAN/GPIO_Program.c **** 	/**
 143:../src/OSMAN/GPIO_Program.c **** 	*@ VALIDATE input parameters
 144:../src/OSMAN/GPIO_Program.c **** 	*/
 145:../src/OSMAN/GPIO_Program.c **** 	if((Add_u8PORT!=GPIOA)||(Add_u8PORT!=GPIOB)||(Add_u8PORT!=GPIOC)||(Add_u8PORT!=GPIOD)||(Add_u8PORT
 146:../src/OSMAN/GPIO_Program.c **** 	{
 147:../src/OSMAN/GPIO_Program.c **** 		Loc_enuRetError = GPIO_enuNOK ;
 148:../src/OSMAN/GPIO_Program.c **** 	}
 149:../src/OSMAN/GPIO_Program.c **** 	else if((Copy_u8PIN > GPIO_PIN15))
 150:../src/OSMAN/GPIO_Program.c **** 	{
 151:../src/OSMAN/GPIO_Program.c **** 		Loc_enuRetError = GPIO_enuNOK ;
 152:../src/OSMAN/GPIO_Program.c **** 	}
 153:../src/OSMAN/GPIO_Program.c **** 	else if((Copy_u8Val > GPIO_HIGH))
 154:../src/OSMAN/GPIO_Program.c **** 	{
 155:../src/OSMAN/GPIO_Program.c **** 		Loc_enuRetError = GPIO_enuNOK ;
 156:../src/OSMAN/GPIO_Program.c **** 	}
 157:../src/OSMAN/GPIO_Program.c **** 	else{
 158:../src/OSMAN/GPIO_Program.c **** 			if(Copy_u8Val == GPIO_HIGH)
 159:../src/OSMAN/GPIO_Program.c **** 			{
 160:../src/OSMAN/GPIO_Program.c **** 				/* set pin as high*/
 161:../src/OSMAN/GPIO_Program.c **** 				Add_u8PORT->BSRR |= (1<<Copy_u8PIN);
 162:../src/OSMAN/GPIO_Program.c **** 			}
 163:../src/OSMAN/GPIO_Program.c **** 			else if(Copy_u8Val == GPIO_LOW)
 164:../src/OSMAN/GPIO_Program.c **** 			{
 165:../src/OSMAN/GPIO_Program.c **** 				/*set pin as Low*/
 166:../src/OSMAN/GPIO_Program.c **** 				Add_u8PORT->BSRR |= (1<<(Copy_u8PIN + 16));
 167:../src/OSMAN/GPIO_Program.c **** 			}
 168:../src/OSMAN/GPIO_Program.c **** 			else
 169:../src/OSMAN/GPIO_Program.c **** 			{
 170:../src/OSMAN/GPIO_Program.c **** 				Loc_enuRetError = GPIO_enuNOK ;
 171:../src/OSMAN/GPIO_Program.c **** 			}
 172:../src/OSMAN/GPIO_Program.c **** 			
 173:../src/OSMAN/GPIO_Program.c **** 	    }/*else*/
 174:../src/OSMAN/GPIO_Program.c **** 	
 175:../src/OSMAN/GPIO_Program.c **** 	return Loc_enuRetError ;
 176:../src/OSMAN/GPIO_Program.c **** }/*GPIO_enuSetPinVal*/
  55              		.loc 1 176 0
  56 0000 0120     		movs	r0, #1
  57              	.LVL3:
  58 0002 7047     		bx	lr
  59              		.cfi_endproc
  60              	.LFE1:
  62              		.section	.text.GPIO_enuGetPinValue,"ax",%progbits
  63              		.align	2
  64              		.global	GPIO_enuGetPinValue
  65              		.thumb
  66              		.thumb_func
  68              	GPIO_enuGetPinValue:
  69              	.LFB2:
 177:../src/OSMAN/GPIO_Program.c **** 
 178:../src/OSMAN/GPIO_Program.c **** 
 179:../src/OSMAN/GPIO_Program.c **** 
 180:../src/OSMAN/GPIO_Program.c **** /**
 181:../src/OSMAN/GPIO_Program.c ****  *@ GPIO_enuGetetPinVal
 182:../src/OSMAN/GPIO_Program.c ****  *@ breif  :  Get the value of the passed pin 
 183:../src/OSMAN/GPIO_Program.c ****  *@ param  :   
 184:../src/OSMAN/GPIO_Program.c ****  *@
 185:../src/OSMAN/GPIO_Program.c ****  *@       Add_u8PORT : GPIOA  
 186:../src/OSMAN/GPIO_Program.c ****  *@					   GPIOB
 187:../src/OSMAN/GPIO_Program.c ****  *@					   GPIOC
 188:../src/OSMAN/GPIO_Program.c ****  *@					   GPIOD
 189:../src/OSMAN/GPIO_Program.c ****  *@					   GPIOE
 190:../src/OSMAN/GPIO_Program.c ****  *@					   GPIOH
 191:../src/OSMAN/GPIO_Program.c ****  *@
 192:../src/OSMAN/GPIO_Program.c ****  *@                                                                                    
 193:../src/OSMAN/GPIO_Program.c ****  *@      Copy_u8PIN   :   GPIO_PIN0 : GPIO_PIN15 
 194:../src/OSMAN/GPIO_Program.c ****  *@ 
 195:../src/OSMAN/GPIO_Program.c ****  *@                                                                                             
 196:../src/OSMAN/GPIO_Program.c ****  *@ return  :  error status  
 197:../src/OSMAN/GPIO_Program.c ****  */
 198:../src/OSMAN/GPIO_Program.c **** GPIO_enuErrorStatus_t GPIO_enuGetPinValue(GPIOx_t * Add_u8PORT , u8 Copy_u8PIN , u8 * Add_u8Val )
 199:../src/OSMAN/GPIO_Program.c **** {
  70              		.loc 1 199 0
  71              		.cfi_startproc
  72              		@ args = 0, pretend = 0, frame = 0
  73              		@ frame_needed = 0, uses_anonymous_args = 0
  74              		@ link register save eliminated.
  75              	.LVL4:
 200:../src/OSMAN/GPIO_Program.c **** 	GPIO_enuErrorStatus_t  Loc_enuRetError = GPIO_enuOK ;
 201:../src/OSMAN/GPIO_Program.c **** 	/* casting port variable to GPIOx_t data type*/
 202:../src/OSMAN/GPIO_Program.c **** 	//Add_u8PORT = (GPIOx_t)(Add_u8PORT)
 203:../src/OSMAN/GPIO_Program.c **** 	
 204:../src/OSMAN/GPIO_Program.c **** 	/**
 205:../src/OSMAN/GPIO_Program.c **** 	*@ VALIDATE input parameters
 206:../src/OSMAN/GPIO_Program.c **** 	*/
 207:../src/OSMAN/GPIO_Program.c **** 	if((Add_u8PORT!=GPIOA)||(Add_u8PORT!=GPIOB)||(Add_u8PORT!=GPIOC)||(Add_u8PORT!=GPIOD)||(Add_u8PORT
 208:../src/OSMAN/GPIO_Program.c **** 	{
 209:../src/OSMAN/GPIO_Program.c **** 		Loc_enuRetError = GPIO_enuNOK ;
 210:../src/OSMAN/GPIO_Program.c **** 	}
 211:../src/OSMAN/GPIO_Program.c **** 	else if((Copy_u8PIN > GPIO_PIN15))
 212:../src/OSMAN/GPIO_Program.c **** 	{
 213:../src/OSMAN/GPIO_Program.c **** 		Loc_enuRetError = GPIO_enuNOK ;
 214:../src/OSMAN/GPIO_Program.c **** 	}
 215:../src/OSMAN/GPIO_Program.c **** 	else if(Add_u8Val == NULL)
 216:../src/OSMAN/GPIO_Program.c **** 	{
 217:../src/OSMAN/GPIO_Program.c **** 		Loc_enuRetError = GPIO_enuNOK ;
 218:../src/OSMAN/GPIO_Program.c **** 	}
 219:../src/OSMAN/GPIO_Program.c **** 	else{
 220:../src/OSMAN/GPIO_Program.c **** 			*Add_u8Val = ((Add_u8PORT->IDR>>Copy_u8PIN) & GET_FIRST_BIT);
 221:../src/OSMAN/GPIO_Program.c **** 			
 222:../src/OSMAN/GPIO_Program.c **** 	    }/*else*/
 223:../src/OSMAN/GPIO_Program.c **** 	
 224:../src/OSMAN/GPIO_Program.c **** 	return Loc_enuRetError ;
 225:../src/OSMAN/GPIO_Program.c **** }/*GPIO_enuGetPinVal*/
  76              		.loc 1 225 0
  77 0000 0120     		movs	r0, #1
  78              	.LVL5:
  79 0002 7047     		bx	lr
  80              		.cfi_endproc
  81              	.LFE2:
  83              		.text
  84              	.Letext0:
  85              		.file 2 "../include/../include/STD_TYPES.h"
  86              		.file 3 "../include/../include/GPIO_Private.h"
  87              		.file 4 "../include/../include/GPIO_Interface.h"